target datalayout = "e-m:e-p270:32:32-p271:32:32-p272:64:64-i64:64-i128:128-f80:128-n8:16:32:64-S128"
target triple = "x86_64-pc-linux-gnu"

%"class.icu_77::number::Notation" = type { i32, %"union.icu_77::number::Notation::NotationUnion" }
%"union.icu_77::number::Notation::NotationUnion" = type { %"struct.icu_77::number::Notation::NotationUnion::ScientificSettings" }
%"struct.icu_77::number::Notation::NotationUnion::ScientificSettings" = type { i8, i8, i16, i32 }
%"class.icu_77::MeasureUnit" = type <{ %"class.icu_77::UObject", ptr, i16, i8, [5 x i8] }>
%"class.icu_77::UObject" = type { ptr }
%"class.icu_77::number::Precision" = type <{ i32, [4 x i8], %"union.icu_77::number::Precision::PrecisionUnion", i32, [4 x i8] }>
%"union.icu_77::number::Precision::PrecisionUnion" = type { %"struct.icu_77::number::Precision::PrecisionUnion::IncrementSettings" }
%"struct.icu_77::number::Precision::PrecisionUnion::IncrementSettings" = type { i64, i16, i16 }
%"class.icu_77::ConstChar16Ptr" = type { ptr }
%"struct.icu_77::number::impl::MacroProps" = type { [4 x i8], %"class.icu_77::number::Notation", %"class.icu_77::MeasureUnit", %"class.icu_77::MeasureUnit", %"class.icu_77::number::Precision", i32, %"class.icu_77::number::impl::Grouper", %"class.icu_77::number::impl::Padder", %"class.icu_77::number::IntegerWidth", %"class.icu_77::number::impl::SymbolsWrapper", i32, i32, i8, i32, %"class.icu_77::number::Scale", %"class.icu_77::number::impl::StringProp", %"class.icu_77::number::impl::StringProp", ptr, ptr, i32, [4 x i8], %"class.icu_77::Locale" }
%"class.icu_77::number::impl::Grouper" = type { i16, i16, i16, i32 }
%"class.icu_77::number::impl::Padder" = type { i32, %union.anon }
%union.anon = type { %struct.anon.1 }
%struct.anon.1 = type { i32, i32 }
%"class.icu_77::number::IntegerWidth" = type <{ %union.anon.2, i8, [3 x i8] }>
%union.anon.2 = type { i32, [4 x i8] }
%"class.icu_77::number::impl::SymbolsWrapper" = type { i32, %union.anon.4 }
%union.anon.4 = type { ptr }
%"class.icu_77::number::Scale" = type <{ i32, [4 x i8], ptr, i32, [4 x i8] }>
%"class.icu_77::number::impl::StringProp" = type { ptr, i16, i32 }
%"class.icu_77::Locale" = type <{ %"class.icu_77::UObject", [12 x i8], [6 x i8], [4 x i8], [2 x i8], i32, [4 x i8], ptr, [157 x i8], [3 x i8], ptr, i8, [7 x i8] }>

@.str.55 = private unnamed_addr constant [7 x i16] [i16 115, i16 99, i16 97, i16 108, i16 101, i16 47, i16 0], align 2

; Function Attrs: inlinehint mustprogress nounwind uwtable
define linkonce_odr noundef ptr @_ZNK6icu_7714ConstChar16Ptr3getEv(ptr noundef nonnull align 8 dereferenceable(8) %0) #2 comdat align 2 {
  %2 = alloca ptr, align 8
  store ptr %0, ptr %2, align 8, !tbaa !29
  %3 = load ptr, ptr %2, align 8
  %4 = getelementptr inbounds nuw %"class.icu_77::ConstChar16Ptr", ptr %3, i32 0, i32 0
  %5 = load ptr, ptr %4, align 8, !tbaa !33
  ret ptr %5
}

; Function Attrs: inlinehint mustprogress uwtable
define linkonce_odr noundef ptr @_ZNK6icu_7714ConstChar16PtrcvPKDsEv(ptr noundef nonnull align 8 dereferenceable(8) %0) #3 comdat align 2 {
  %2 = alloca ptr, align 8
  store ptr %0, ptr %2, align 8, !tbaa !29
  %3 = load ptr, ptr %2, align 8
  %4 = call noundef ptr @_ZNK6icu_7714ConstChar16Ptr3getEv(ptr noundef nonnull align 8 dereferenceable(8) %3)
  ret ptr %4
}

; Function Attrs: inlinehint mustprogress nounwind uwtable
define linkonce_odr void @_ZN6icu_7714ConstChar16PtrD2Ev(ptr noundef nonnull align 8 dereferenceable(8) %0) unnamed_addr #2 comdat align 2 {
  %2 = alloca ptr, align 8
  store ptr %0, ptr %2, align 8, !tbaa !29
  %3 = load ptr, ptr %2, align 8
  %4 = getelementptr inbounds nuw %"class.icu_77::ConstChar16Ptr", ptr %3, i32 0, i32 0
  %5 = load ptr, ptr %4, align 8, !tbaa !33
  call void asm sideeffect "", "rm,~{memory},~{dirflag},~{fpsr},~{flags}"(ptr %5) #14, !srcloc !35
  ret void
}

; Function Attrs: inlinehint mustprogress uwtable
define linkonce_odr noundef nonnull align 8 dereferenceable(64) ptr @_ZN6icu_7713UnicodeString6appendENS_14ConstChar16PtrEi(ptr noundef nonnull align 8 dereferenceable(64) %0, ptr noundef %1, i32 noundef %2) #3 comdat align 2 {
  %4 = alloca ptr, align 8
  %5 = alloca ptr, align 8
  %6 = alloca i32, align 4
  store ptr %0, ptr %4, align 8, !tbaa !27
  store ptr %1, ptr %5, align 8, !tbaa !29
  store i32 %2, ptr %6, align 4, !tbaa !14
  %7 = load ptr, ptr %4, align 8
  %8 = call noundef ptr @_ZNK6icu_7714ConstChar16PtrcvPKDsEv(ptr noundef nonnull align 8 dereferenceable(8) %1)
  %9 = load i32, ptr %6, align 4, !tbaa !14
  %10 = call noundef nonnull align 8 dereferenceable(64) ptr @_ZN6icu_7713UnicodeString8doAppendEPKDsii(ptr noundef nonnull align 8 dereferenceable(64) %7, ptr noundef %8, i32 noundef 0, i32 noundef %9)
  ret ptr %10
}

; Function Attrs: inlinehint mustprogress nounwind uwtable
define linkonce_odr void @_ZN6icu_7714ConstChar16PtrC2EPKDs(ptr noundef nonnull align 8 dereferenceable(8) %0, ptr noundef %1) unnamed_addr #2 comdat align 2 {
  %3 = alloca ptr, align 8
  %4 = alloca ptr, align 8
  store ptr %0, ptr %3, align 8, !tbaa !29
  store ptr %1, ptr %4, align 8, !tbaa !31
  %5 = load ptr, ptr %3, align 8
  %6 = getelementptr inbounds nuw %"class.icu_77::ConstChar16Ptr", ptr %5, i32 0, i32 0
  %7 = load ptr, ptr %4, align 8, !tbaa !31
  store ptr %7, ptr %6, align 8, !tbaa !33
  ret void
}

; Function Attrs: mustprogress nounwind uwtable
define linkonce_odr noundef zeroext i1 @_ZNK6icu_776number5Scale7isValidEv(ptr noundef nonnull align 8 dereferenceable(20) %0) #0 comdat align 2 {
  %2 = alloca ptr, align 8
  store ptr %0, ptr %2, align 8, !tbaa !229
  %3 = load ptr, ptr %2, align 8
  %4 = getelementptr inbounds nuw %"class.icu_77::number::Scale", ptr %3, i32 0, i32 0
  %5 = load i32, ptr %4, align 8, !tbaa !231
  %6 = icmp ne i32 %5, 0
  br i1 %6, label %11, label %7

7:                                                ; preds = %1
  %8 = getelementptr inbounds nuw %"class.icu_77::number::Scale", ptr %3, i32 0, i32 2
  %9 = load ptr, ptr %8, align 8, !tbaa !232
  %10 = icmp ne ptr %9, null
  br label %11

11:                                               ; preds = %7, %1
  %12 = phi i1 [ true, %1 ], [ %10, %7 ]
  ret i1 %12
}

; Function Attrs: mustprogress uwtable
define noundef zeroext i1 @_ZN6icu_776number4impl16GeneratorHelpers5scaleERKNS1_10MacroPropsERNS_13UnicodeStringER10UErrorCode(ptr noundef nonnull align 8 dereferenceable(472) %0, ptr noundef nonnull align 8 dereferenceable(64) %1, ptr noundef nonnull align 4 dereferenceable(4) %2) #1 align 2 personality ptr @__gxx_personality_v0 {
  %4 = alloca i1, align 1
  %5 = alloca ptr, align 8
  %6 = alloca ptr, align 8
  %7 = alloca ptr, align 8
  %8 = alloca %"class.icu_77::ConstChar16Ptr", align 8
  %9 = alloca ptr, align 8
  %10 = alloca i32, align 4
  store ptr %0, ptr %5, align 8, !tbaa !75
  store ptr %1, ptr %6, align 8, !tbaa !27
  store ptr %2, ptr %7, align 8, !tbaa !22
  %11 = load ptr, ptr %5, align 8, !tbaa !75
  %12 = getelementptr inbounds nuw %"struct.icu_77::number::impl::MacroProps", ptr %11, i32 0, i32 14
  %13 = call noundef zeroext i1 @_ZNK6icu_776number5Scale7isValidEv(ptr noundef nonnull align 8 dereferenceable(20) %12)
  br i1 %13, label %15, label %14

14:                                               ; preds = %3
  store i1 false, ptr %4, align 1
  br label %33

15:                                               ; preds = %3
  %16 = load ptr, ptr %6, align 8, !tbaa !27
  call void @_ZN6icu_7714ConstChar16PtrC2EPKDs(ptr noundef nonnull align 8 dereferenceable(8) %8, ptr noundef @.str.55)
  %17 = invoke noundef nonnull align 8 dereferenceable(64) ptr @_ZN6icu_7713UnicodeString6appendENS_14ConstChar16PtrEi(ptr noundef nonnull align 8 dereferenceable(64) %16, ptr noundef %8, i32 noundef -1)
          to label %18 unwind label %29

18:                                               ; preds = %15
  call void @_ZN6icu_7714ConstChar16PtrD2Ev(ptr noundef nonnull align 8 dereferenceable(8) %8) #14
  %19 = load ptr, ptr %5, align 8, !tbaa !75
  %20 = getelementptr inbounds nuw %"struct.icu_77::number::impl::MacroProps", ptr %19, i32 0, i32 14
  %21 = getelementptr inbounds nuw %"class.icu_77::number::Scale", ptr %20, i32 0, i32 0
  %22 = load i32, ptr %21, align 8, !tbaa !191
  %23 = load ptr, ptr %5, align 8, !tbaa !75
  %24 = getelementptr inbounds nuw %"struct.icu_77::number::impl::MacroProps", ptr %23, i32 0, i32 14
  %25 = getelementptr inbounds nuw %"class.icu_77::number::Scale", ptr %24, i32 0, i32 2
  %26 = load ptr, ptr %25, align 8, !tbaa !192
  %27 = load ptr, ptr %6, align 8, !tbaa !27
  %28 = load ptr, ptr %7, align 8, !tbaa !22
  call void @_ZN6icu_776number4impl17blueprint_helpers19generateScaleOptionEiPKNS1_6DecNumERNS_13UnicodeStringER10UErrorCode(i32 noundef %22, ptr noundef %26, ptr noundef nonnull align 8 dereferenceable(64) %27, ptr noundef nonnull align 4 dereferenceable(4) %28)
  store i1 true, ptr %4, align 1
  br label %33

29:                                               ; preds = %15
  %30 = landingpad { ptr, i32 }
          cleanup
  %31 = extractvalue { ptr, i32 } %30, 0
  store ptr %31, ptr %9, align 8
  %32 = extractvalue { ptr, i32 } %30, 1
  store i32 %32, ptr %10, align 4
  call void @_ZN6icu_7714ConstChar16PtrD2Ev(ptr noundef nonnull align 8 dereferenceable(8) %8) #14
  br label %35

33:                                               ; preds = %18, %14
  %34 = load i1, ptr %4, align 1
  ret i1 %34

35:                                               ; preds = %29
  %36 = load ptr, ptr %9, align 8
  %37 = load i32, ptr %10, align 4
  %38 = insertvalue { ptr, i32 } poison, ptr %36, 0
  %39 = insertvalue { ptr, i32 } %38, i32 %37, 1
  resume { ptr, i32 } %39
}