; Function Attrs: mustprogress uwtable
define noundef zeroext i1 @_ZN6icu_776number4impl16GeneratorHelpers5scaleERKNS1_10MacroPropsERNS_13UnicodeStringER10UErrorCode(ptr noundef nonnull readonly align 8 captures(none) dereferenceable(472) %0, ptr noundef nonnull align 8 dereferenceable(64) %1, ptr noundef nonnull align 4 dereferenceable(4) %2) local_unnamed_addr #1 align 2 personality ptr @__gxx_personality_v0 {
  %4 = getelementptr inbounds nuw i8, ptr %0, i64 168
  %5 = load i32, ptr %4, align 8, !tbaa !80
  %.not.i = icmp ne i32 %5, 0
  %6 = getelementptr inbounds nuw i8, ptr %0, i64 176
  %7 = load ptr, ptr %6, align 8
  %8 = icmp ne ptr %7, null
  %9 = select i1 %.not.i, i1 true, i1 %8
  br i1 %9, label %10, label %16

10:                                               ; preds = %3
  %11 = invoke noundef nonnull align 8 dereferenceable(64) ptr @_ZN6icu_7713UnicodeString8doAppendEPKDsii(ptr noundef nonnull align 8 dereferenceable(64) %1, ptr noundef nonnull @.str.55, i32 noundef 0, i32 noundef -1)
          to label %_ZN6icu_7713UnicodeString6appendENS_14ConstChar16PtrEi.exit unwind label %14

_ZN6icu_7713UnicodeString6appendENS_14ConstChar16PtrEi.exit: ; preds = %10
  tail call void asm sideeffect "", "rm,~{memory},~{dirflag},~{fpsr},~{flags}"(ptr nonnull @.str.55) #18, !srcloc !15
  %12 = load i32, ptr %4, align 8, !tbaa !154
  %13 = load ptr, ptr %6, align 8, !tbaa !155
  tail call void @_ZN6icu_776number4impl17blueprint_helpers19generateScaleOptionEiPKNS1_6DecNumERNS_13UnicodeStringER10UErrorCode(i32 noundef %12, ptr noundef %13, ptr noundef nonnull align 8 dereferenceable(64) %1, ptr noundef nonnull align 4 dereferenceable(4) %2)
  br label %16

14:                                               ; preds = %10
  %15 = landingpad { ptr, i32 }
          cleanup
  tail call void asm sideeffect "", "rm,~{memory},~{dirflag},~{fpsr},~{flags}"(ptr nonnull @.str.55) #18, !srcloc !15
  resume { ptr, i32 } %15

16:                                               ; preds = %3, %_ZN6icu_7713UnicodeString6appendENS_14ConstChar16PtrEi.exit
  ret i1 %9
}